///////////////////////////////////////////////////////////////////////////////
//
// IAR ANSI C/C++ Compiler V9.20.1.318/W64 for ARM        07/Feb/2022  20:39:56
// Copyright 1999-2021 IAR Systems AB.
//
//    Cpu mode     =  thumb
//    Endian       =  little
//    Source file  =
//        D:\99_Project\GitHub\TouchGFX\MyApplication\TouchGFX\gui\src\screen1_screen\Screen1Presenter.cpp
//        [UTF-8]
//    Command line =
//        -f
//        D:\99_Project\GitHub\TouchGFX\MyApplication\EWARM\STM32H7B3I-DK\Obj\TouchGFX\gui\screen1_screen\Screen1Presenter.o.rsp
//        (D:\99_Project\GitHub\TouchGFX\MyApplication\TouchGFX\gui\src\screen1_screen\Screen1Presenter.cpp
//        -D USE_HAL_DRIVER -D STM32H7B3xxQ -D USE_BPP=24 -lC
//        D:\99_Project\GitHub\TouchGFX\MyApplication\EWARM\STM32H7B3I-DK\List\TouchGFX\gui\screen1_screen
//        -lA
//        D:\99_Project\GitHub\TouchGFX\MyApplication\EWARM\STM32H7B3I-DK\List\TouchGFX\gui\screen1_screen
//        -o
//        D:\99_Project\GitHub\TouchGFX\MyApplication\EWARM\STM32H7B3I-DK\Obj\TouchGFX\gui\screen1_screen
//        --no_cse --no_unroll --no_inline --no_code_motion --no_tbaa
//        --no_clustering --no_scheduling --debug --endian=little
//        --cpu=Cortex-M7 -e --fpu=VFPv5_d16 --dlib_config "C:\Program
//        Files\IAR Systems\Embedded Workbench
//        9.0\arm\inc\c\DLib_Config_Full.h" -I
//        D:\99_Project\GitHub\TouchGFX\MyApplication\EWARM/../Core/Inc\ -I
//        D:\99_Project\GitHub\TouchGFX\MyApplication\EWARM/../TouchGFX/App\ -I
//        D:\99_Project\GitHub\TouchGFX\MyApplication\EWARM/../TouchGFX/target/generated\
//        -I
//        D:\99_Project\GitHub\TouchGFX\MyApplication\EWARM/../TouchGFX/target\
//        -I
//        D:\99_Project\GitHub\TouchGFX\MyApplication\EWARM/../Drivers/STM32H7xx_HAL_Driver/Inc\
//        -I
//        D:\99_Project\GitHub\TouchGFX\MyApplication\EWARM/../Drivers/STM32H7xx_HAL_Driver/Inc/Legacy\
//        -I
//        D:\99_Project\GitHub\TouchGFX\MyApplication\EWARM/../Middlewares/Third_Party/FreeRTOS/Source/include\
//        -I
//        D:\99_Project\GitHub\TouchGFX\MyApplication\EWARM/../Middlewares/Third_Party/FreeRTOS/Source/CMSIS_RTOS_V2\
//        -I
//        D:\99_Project\GitHub\TouchGFX\MyApplication\EWARM/../Middlewares/Third_Party/FreeRTOS/Source/portable/IAR/ARM_CM4F\
//        -I
//        D:\99_Project\GitHub\TouchGFX\MyApplication\EWARM/../Drivers/CMSIS/Device/ST/STM32H7xx/Include\
//        -I
//        D:\99_Project\GitHub\TouchGFX\MyApplication\EWARM/../Drivers/CMSIS/Include\
//        -I
//        D:\99_Project\GitHub\TouchGFX\MyApplication\EWARM/../Drivers/BSP/Components/Common\
//        -I
//        D:\99_Project\GitHub\TouchGFX\MyApplication\EWARM/../Drivers/BSP/STM32H7B3I-DK\
//        -I
//        D:\99_Project\GitHub\TouchGFX\MyApplication\EWARM/../Middlewares/ST/touchgfx/framework/include\
//        -I
//        D:\99_Project\GitHub\TouchGFX\MyApplication\EWARM/../TouchGFX/generated/fonts/include\
//        -I
//        D:\99_Project\GitHub\TouchGFX\MyApplication\EWARM/../TouchGFX/generated/gui_generated/include\
//        -I
//        D:\99_Project\GitHub\TouchGFX\MyApplication\EWARM/../TouchGFX/generated/images/include\
//        -I
//        D:\99_Project\GitHub\TouchGFX\MyApplication\EWARM/../TouchGFX/generated/texts/include\
//        -I
//        D:\99_Project\GitHub\TouchGFX\MyApplication\EWARM/../TouchGFX/gui/include\
//        -I
//        D:\99_Project\GitHub\TouchGFX\MyApplication\EWARM/../TouchGFX/generated/videos/include\
//        -Ol --c++ --no_exceptions --no_rtti --no_static_destruction
//        --source_encoding utf8 --text_out utf8 --utf8_text_in)
//        --dependencies=n
//        D:\99_Project\GitHub\TouchGFX\MyApplication\EWARM\STM32H7B3I-DK\Obj\TouchGFX\gui\screen1_screen\Screen1Presenter.o.d
//    Locale       =  C
//    List file    =
//        D:\99_Project\GitHub\TouchGFX\MyApplication\EWARM\STM32H7B3I-DK\List\TouchGFX\gui\screen1_screen\Screen1Presenter.s
//
///////////////////////////////////////////////////////////////////////////////

        RTMODEL "__CPP_Exceptions", "Disabled"
        RTMODEL "__CPP_Language", "C++14"
        RTMODEL "__CPP_Library", "DLib"
        RTMODEL "__CPP_Runtime", "1"
        RTMODEL "__SystemLibrary", "DLib"
        RTMODEL "__dlib_full_locale_support", "1"
        RTMODEL "__dlib_version", "6"
        AAPCS BASE,INTERWORK,VFP
        PRESERVE8
        REQUIRE8

        #define SHT_PROGBITS 0x1

        EXTERN _ZTVN10__cxxabiv117__class_type_infoE
        EXTERN _ZTVN10__cxxabiv121__vmi_class_type_infoE
        EXTERN _ZdlPvj

        PUBLIC _ZN13ModelListenerC1Ev
        PUBLIC _ZN13ModelListenerC2Ev
        PUBLIC _ZN13ModelListenerD0Ev
        PUBLIC _ZN13ModelListenerD1Ev
        PUBLIC _ZN16Screen1Presenter10deactivateEv
        PUBLIC _ZN16Screen1Presenter8activateEv
        PUBLIC _ZN16Screen1PresenterC1ER11Screen1View
        PUBLIC _ZN16Screen1PresenterC2ER11Screen1View
        PUBLIC _ZN16Screen1PresenterD0Ev
        PUBLIC _ZN16Screen1PresenterD1Ev
        PUBLIC _ZN8touchgfx9Presenter10deactivateEv
        PUBLIC _ZN8touchgfx9Presenter8activateEv
        PUBLIC _ZN8touchgfx9PresenterC1Ev
        PUBLIC _ZN8touchgfx9PresenterC2Ev
        PUBLIC _ZN8touchgfx9PresenterD0Ev
        PUBLIC _ZN8touchgfx9PresenterD1Ev
        PUBLIC _ZTI13ModelListener
        PUBLIC _ZTI16Screen1Presenter
        PUBLIC _ZTIN8touchgfx9PresenterE
        PUBLIC _ZTS13ModelListener
        PUBLIC _ZTS16Screen1Presenter
        PUBLIC _ZTSN8touchgfx9PresenterE
        PUBLIC _ZTV13ModelListener
        PUBLIC _ZTV16Screen1Presenter
        PUBLIC _ZTVN8touchgfx9PresenterE
        PUBLIC _ZThn4_N16Screen1PresenterD0Ev
        PUBLIC _ZThn4_N16Screen1PresenterD1Ev
        
          CFI Names cfiNames0
          CFI StackFrame CFA R13 DATA
          CFI Resource R0:32, R1:32, R2:32, R3:32, R4:32, R5:32, R6:32, R7:32
          CFI Resource R8:32, R9:32, R10:32, R11:32, R12:32, R13:32, R14:32
          CFI Resource D0:64, D1:64, D2:64, D3:64, D4:64, D5:64, D6:64, D7:64
          CFI Resource D8:64, D9:64, D10:64, D11:64, D12:64, D13:64, D14:64
          CFI Resource D15:64
          CFI EndNames cfiNames0
        
          CFI Common cfiCommon0 Using cfiNames0
          CFI CodeAlign 2
          CFI DataAlign 4
          CFI ReturnAddress R14 CODE
          CFI CFA R13+0
          CFI R0 Undefined
          CFI R1 Undefined
          CFI R2 Undefined
          CFI R3 Undefined
          CFI R4 SameValue
          CFI R5 SameValue
          CFI R6 SameValue
          CFI R7 SameValue
          CFI R8 SameValue
          CFI R9 SameValue
          CFI R10 SameValue
          CFI R11 SameValue
          CFI R12 Undefined
          CFI R14 SameValue
          CFI D0 Undefined
          CFI D1 Undefined
          CFI D2 Undefined
          CFI D3 Undefined
          CFI D4 Undefined
          CFI D5 Undefined
          CFI D6 Undefined
          CFI D7 Undefined
          CFI D8 SameValue
          CFI D9 SameValue
          CFI D10 SameValue
          CFI D11 SameValue
          CFI D12 SameValue
          CFI D13 SameValue
          CFI D14 SameValue
          CFI D15 SameValue
          CFI EndCommon cfiCommon0
        
// D:\99_Project\GitHub\TouchGFX\MyApplication\TouchGFX\gui\src\screen1_screen\Screen1Presenter.cpp
//    1 #include <gui/screen1_screen/Screen1View.hpp>

        SECTION `.text`:CODE:REORDER:NOROOT(1)
        SECTION_GROUP _ZN8touchgfx9Presenter8activateEv
          CFI Block cfiBlock0 Using cfiCommon0
          CFI Function _ZN8touchgfx9Presenter8activateEv
          CFI NoCalls
        THUMB
// __vfp void touchgfx::Presenter::activate()
_ZN8touchgfx9Presenter8activateEv:
        BX       LR             
          CFI EndBlock cfiBlock0

        SECTION `.text`:CODE:REORDER:NOROOT(1)
        SECTION_GROUP _ZN8touchgfx9Presenter10deactivateEv
          CFI Block cfiBlock1 Using cfiCommon0
          CFI Function _ZN8touchgfx9Presenter10deactivateEv
          CFI NoCalls
        THUMB
// __vfp void touchgfx::Presenter::deactivate()
_ZN8touchgfx9Presenter10deactivateEv:
        BX       LR             
          CFI EndBlock cfiBlock1

        SECTION `.text`:CODE:REORDER:NOROOT(1)
        SECTION_GROUP _ZN8touchgfx9PresenterD1Ev
          CFI Block cfiBlock2 Using cfiCommon0
          CFI Function _ZN8touchgfx9PresenterD1Ev
          CFI NoCalls
        THUMB
// __vfp touchgfx::Presenter::~Presenter() noexcept
_ZN8touchgfx9PresenterD1Ev:
        BX       LR             
          CFI EndBlock cfiBlock2

        SECTION `.text`:CODE:REORDER:NOROOT(1)
        SECTION_GROUP _ZN8touchgfx9PresenterD0Ev
          CFI Block cfiBlock3 Using cfiCommon0
          CFI Function _ZN8touchgfx9PresenterD0Ev
        THUMB
// __vfp touchgfx::Presenter::deleter ~Presenter() noexcept
_ZN8touchgfx9PresenterD0Ev:
        PUSH     {R4,LR}        
          CFI R14 Frame(CFA, -4)
          CFI R4 Frame(CFA, -8)
          CFI CFA R13+8
        MOVS     R4,R0          
        MOVS     R0,R4          
          CFI FunCall _ZN8touchgfx9PresenterD1Ev
        BL       _ZN8touchgfx9PresenterD1Ev
        MOVS     R1,#+4         
        MOVS     R0,R4          
          CFI FunCall _ZdlPvj
        BL       _ZdlPvj        
        POP      {R4,PC}        
          CFI EndBlock cfiBlock3

        SECTION `.text`:CODE:REORDER:NOROOT(1)
        SECTION_GROUP _ZN8touchgfx9PresenterC2Ev
          CFI Block cfiBlock4 Using cfiCommon0
          CFI Function _ZN8touchgfx9PresenterC2Ev
        THUMB
// __vfp touchgfx::Presenter::subobject Presenter()
_ZN8touchgfx9PresenterC2Ev:
        PUSH     {R7,LR}        
          CFI R14 Frame(CFA, -4)
          CFI CFA R13+8
          CFI FunCall _ZN8touchgfx9PresenterC1Ev
        BL       _ZN8touchgfx9PresenterC1Ev
        POP      {R1,PC}        
          CFI EndBlock cfiBlock4

        SECTION `.text`:CODE:REORDER:NOROOT(2)
        SECTION_GROUP _ZN8touchgfx9PresenterC1Ev
          CFI Block cfiBlock5 Using cfiCommon0
          CFI Function _ZN8touchgfx9PresenterC1Ev
          CFI NoCalls
        THUMB
// __vfp touchgfx::Presenter::Presenter()
_ZN8touchgfx9PresenterC1Ev:
        LDR.N    R1,??Presenter_0
        STR      R1,[R0, #+0]   
        BX       LR             
        Nop                     
        DATA
??Presenter_0:
        DATA32
        DC32     _ZTVN8touchgfx9PresenterE+0x8
          CFI EndBlock cfiBlock5

        SECTION `.text`:CODE:REORDER:NOROOT(1)
        SECTION_GROUP _ZN13ModelListenerC2Ev
          CFI Block cfiBlock6 Using cfiCommon0
          CFI Function _ZN13ModelListenerC2Ev
        THUMB
// __vfp ModelListener::subobject ModelListener()
_ZN13ModelListenerC2Ev:
        PUSH     {R7,LR}        
          CFI R14 Frame(CFA, -4)
          CFI CFA R13+8
          CFI FunCall _ZN13ModelListenerC1Ev
        BL       _ZN13ModelListenerC1Ev
        POP      {R1,PC}        
          CFI EndBlock cfiBlock6

        SECTION `.text`:CODE:REORDER:NOROOT(2)
        SECTION_GROUP _ZN13ModelListenerC1Ev
          CFI Block cfiBlock7 Using cfiCommon0
          CFI Function _ZN13ModelListenerC1Ev
          CFI NoCalls
        THUMB
// __vfp ModelListener::ModelListener()
_ZN13ModelListenerC1Ev:
        LDR.N    R1,??ModelListener_0
        STR      R1,[R0, #+0]   
        MOVS     R1,#+0         
        STR      R1,[R0, #+4]   
        BX       LR             
        Nop                     
        DATA
??ModelListener_0:
        DATA32
        DC32     _ZTV13ModelListener+0x8
          CFI EndBlock cfiBlock7

        SECTION `.text`:CODE:REORDER:NOROOT(1)
        SECTION_GROUP _ZN13ModelListenerD1Ev
          CFI Block cfiBlock8 Using cfiCommon0
          CFI Function _ZN13ModelListenerD1Ev
          CFI NoCalls
        THUMB
// __vfp ModelListener::~ModelListener() noexcept
_ZN13ModelListenerD1Ev:
        BX       LR             
          CFI EndBlock cfiBlock8

        SECTION `.text`:CODE:REORDER:NOROOT(1)
        SECTION_GROUP _ZN13ModelListenerD0Ev
          CFI Block cfiBlock9 Using cfiCommon0
          CFI Function _ZN13ModelListenerD0Ev
        THUMB
// __vfp ModelListener::deleter ~ModelListener() noexcept
_ZN13ModelListenerD0Ev:
        PUSH     {R4,LR}        
          CFI R14 Frame(CFA, -4)
          CFI R4 Frame(CFA, -8)
          CFI CFA R13+8
        MOVS     R4,R0          
        MOVS     R0,R4          
          CFI FunCall _ZN13ModelListenerD1Ev
        BL       _ZN13ModelListenerD1Ev
        MOVS     R1,#+8         
        MOVS     R0,R4          
          CFI FunCall _ZdlPvj
        BL       _ZdlPvj        
        POP      {R4,PC}        
          CFI EndBlock cfiBlock9

        SECTION `.text`:CODE:REORDER:NOROOT(1)
        SECTION_GROUP _ZN16Screen1PresenterD1Ev
          CFI Block cfiBlock10 Using cfiCommon0
          CFI Function _ZN16Screen1PresenterD1Ev
          CFI NoCalls
        THUMB
// __vfp Screen1Presenter::~Screen1Presenter() noexcept
_ZN16Screen1PresenterD1Ev:
        BX       LR             
          CFI EndBlock cfiBlock10
//    2 #include <gui/screen1_screen/Screen1Presenter.hpp>
//    3 

        SECTION `.text`:CODE:NOROOT(1)
          CFI Block cfiBlock11 Using cfiCommon0
          CFI Function _ZN16Screen1PresenterC2ER11Screen1View
        THUMB
// __vfp Screen1Presenter::subobject Screen1Presenter(Screen1View &)
_ZN16Screen1PresenterC2ER11Screen1View:
        PUSH     {R7,LR}        
          CFI R14 Frame(CFA, -4)
          CFI CFA R13+8
          CFI FunCall _ZN16Screen1PresenterC1ER11Screen1View
        BL       _ZN16Screen1PresenterC1ER11Screen1View
        POP      {R1,PC}        
          CFI EndBlock cfiBlock11

        SECTION `.text`:CODE:NOROOT(1)
          CFI Block cfiBlock12 Using cfiCommon0
          CFI Function _ZN16Screen1PresenterC1ER11Screen1View
        THUMB
//    4 Screen1Presenter::Screen1Presenter(Screen1View& v)
//    5     : view(v)
//    6 {
_ZN16Screen1PresenterC1ER11Screen1View:
        PUSH     {R3-R5,LR}     
          CFI R14 Frame(CFA, -4)
          CFI R5 Frame(CFA, -8)
          CFI R4 Frame(CFA, -12)
          CFI CFA R13+16
        MOVS     R4,R0          
        MOVS     R5,R1          
        MOVS     R0,R4          
          CFI FunCall _ZN8touchgfx9PresenterC2Ev
        BL       _ZN8touchgfx9PresenterC2Ev
        ADDS     R0,R4,#+4      
          CFI FunCall _ZN13ModelListenerC2Ev
        BL       _ZN13ModelListenerC2Ev
        LDR.N    R0,??DataTable1
        ADDS     R1,R0,#+8      
        STR      R1,[R4, #+0]   
        ADDS     R0,R0,#+32     
        STR      R0,[R4, #+4]   
        STR      R5,[R4, #+12]  
//    7 
//    8 }
        MOVS     R0,R4          
        POP      {R1,R4,R5,PC}  
          CFI EndBlock cfiBlock12

        SECTION `.text`:CODE:NOROOT(2)
        SECTION_TYPE SHT_PROGBITS, 0
        DATA
??DataTable1:
        DATA32
        DC32     _ZTV16Screen1Presenter
//    9 

        SECTION `.text`:CODE:NOROOT(1)
          CFI Block cfiBlock13 Using cfiCommon0
          CFI Function _ZN16Screen1Presenter8activateEv
          CFI NoCalls
        THUMB
//   10 void Screen1Presenter::activate()
//   11 {
//   12 
//   13 }
_ZN16Screen1Presenter8activateEv:
        BX       LR             
          CFI EndBlock cfiBlock13
//   14 

        SECTION `.text`:CODE:NOROOT(1)
          CFI Block cfiBlock14 Using cfiCommon0
          CFI Function _ZN16Screen1Presenter10deactivateEv
          CFI NoCalls
        THUMB
//   15 void Screen1Presenter::deactivate()
//   16 {
//   17 
//   18 }
_ZN16Screen1Presenter10deactivateEv:
        BX       LR             
          CFI EndBlock cfiBlock14

        SECTION `.text`:CODE:REORDER:NOROOT(1)
        SECTION_GROUP _ZN16Screen1PresenterD0Ev
          CFI Block cfiBlock15 Using cfiCommon0
          CFI Function _ZN16Screen1PresenterD0Ev
        THUMB
// __vfp Screen1Presenter::deleter ~Screen1Presenter() noexcept
_ZN16Screen1PresenterD0Ev:
        PUSH     {R4,LR}        
          CFI R14 Frame(CFA, -4)
          CFI R4 Frame(CFA, -8)
          CFI CFA R13+8
        MOVS     R4,R0          
        MOVS     R0,R4          
          CFI FunCall _ZN16Screen1PresenterD1Ev
        BL       _ZN16Screen1PresenterD1Ev
        MOVS     R1,#+16        
        MOVS     R0,R4          
          CFI FunCall _ZdlPvj
        BL       _ZdlPvj        
        POP      {R4,PC}        
          CFI EndBlock cfiBlock15

        SECTION `.iar_vfe_vtableinfo_ZTVN8touchgfx9PresenterE`:DATA:NOALLOC:NOROOT(2)
        SECTION_TYPE SHT_PROGBITS, 0
        SECTION_GROUP _ZTVN8touchgfx9PresenterE
        DATA
        DC32    _ZTVN8touchgfx9PresenterE
        DC32    6
        DC32    1
        DC32    _ZTIN8touchgfx9PresenterE
        DC32    1
        DC32    2
        DC32    0

        SECTION `.iar_vfe_vtableinfo_ZTV13ModelListener`:DATA:NOALLOC:NOROOT(2)
        SECTION_TYPE SHT_PROGBITS, 0
        SECTION_GROUP _ZTV13ModelListener
        DATA
        DC32    _ZTV13ModelListener
        DC32    4
        DC32    1
        DC32    _ZTI13ModelListener
        DC32    1
        DC32    2
        DC32    0

        SECTION `.iar_vfe_vtableinfo_ZTV16Screen1Presenter`:DATA:NOALLOC:NOROOT(2)
        SECTION_TYPE SHT_PROGBITS, 0
        SECTION_GROUP _ZTV16Screen1Presenter
        DATA
        DC32    _ZTV16Screen1Presenter
        DC32    10
        DC32    3
        DC32    _ZTI13ModelListener
        DC32    0
        DC32    1
        DC32    _ZTI16Screen1Presenter
        DC32    1
        DC32    8
        DC32    0
        DC32    _ZTI16Screen1Presenter
        DC32    1
        DC32    2
        DC32    0
        DC32    _ZTIN8touchgfx9PresenterE
        DC32    0
        DC32    1
        DC32    _ZTI16Screen1Presenter
        DC32    1
        DC32    2
        DC32    0

        SECTION `.iar_vfe_header`:DATA:NOALLOC:NOROOT(2)
        SECTION_TYPE SHT_PROGBITS, 0
        DATA
        DC32 0

        SECTION `.text`:CODE:REORDER:NOROOT(1)
        SECTION_GROUP _ZThn4_N16Screen1PresenterD0Ev
          CFI Block cfiBlock16 Using cfiCommon0
          CFI Function _ZThn4_N16Screen1PresenterD0Ev
        THUMB
// __vfp void Screen1Presenter::deleter ~Screen1Presenter for ModelListener/-4/() noexcept
_ZThn4_N16Screen1PresenterD0Ev:
        SUBS     R0,R0,#+4      
          CFI FunCall _ZN16Screen1PresenterD0Ev
        B.W      _ZN16Screen1PresenterD0Ev
          CFI EndBlock cfiBlock16

        SECTION `.text`:CODE:REORDER:NOROOT(1)
        SECTION_GROUP _ZThn4_N16Screen1PresenterD1Ev
          CFI Block cfiBlock17 Using cfiCommon0
          CFI Function _ZThn4_N16Screen1PresenterD1Ev
        THUMB
// __vfp void *Screen1Presenter::~Screen1Presenter for ModelListener/-4/() noexcept
_ZThn4_N16Screen1PresenterD1Ev:
        SUBS     R0,R0,#+4      
          CFI FunCall _ZN16Screen1PresenterD1Ev
        B.W      _ZN16Screen1PresenterD1Ev
          CFI EndBlock cfiBlock17

        SECTION `.rodata`:CONST:REORDER:NOROOT(2)
        SECTION_GROUP _ZTVN8touchgfx9PresenterE
        DATA
// __absolute void (*const touchgfx::Presenter::__vtbl[6])()
_ZTVN8touchgfx9PresenterE:
        DATA32
        DC32 0x0, _ZTIN8touchgfx9PresenterE, _ZN8touchgfx9Presenter8activateEv
        DC32 _ZN8touchgfx9Presenter10deactivateEv, _ZN8touchgfx9PresenterD1Ev
        DC32 _ZN8touchgfx9PresenterD0Ev

        SECTION `.rodata`:CONST:REORDER:NOROOT(2)
        SECTION_GROUP _ZTIN8touchgfx9PresenterE
        DATA
// __absolute __class_type_info const <Typeinfo for touchgfx::Presenter>
_ZTIN8touchgfx9PresenterE:
        DATA32
        DC32 _ZTVN10__cxxabiv117__class_type_infoE + 0x8
        DC32 _ZTSN8touchgfx9PresenterE

        SECTION `.rodata`:CONST:REORDER:NOROOT(2)
        SECTION_GROUP _ZTV13ModelListener
        DATA
// __absolute void (*const ModelListener::__vtbl[4])()
_ZTV13ModelListener:
        DATA32
        DC32 0x0, _ZTI13ModelListener, _ZN13ModelListenerD1Ev
        DC32 _ZN13ModelListenerD0Ev

        SECTION `.rodata`:CONST:REORDER:NOROOT(2)
        SECTION_GROUP _ZTV16Screen1Presenter
        DATA
// __absolute void (*const Screen1Presenter::__vtbl[10])()
_ZTV16Screen1Presenter:
        DATA32
        DC32 0x0, _ZTI16Screen1Presenter, _ZN16Screen1Presenter8activateEv
        DC32 _ZN16Screen1Presenter10deactivateEv, _ZN16Screen1PresenterD1Ev
        DC32 _ZN16Screen1PresenterD0Ev, 0xffff'fffc, _ZTI16Screen1Presenter
        DC32 _ZThn4_N16Screen1PresenterD1Ev, _ZThn4_N16Screen1PresenterD0Ev

        SECTION `.rodata`:CONST:REORDER:NOROOT(2)
        SECTION_GROUP _ZTI13ModelListener
        DATA
// __absolute __class_type_info const <Typeinfo for ModelListener>
_ZTI13ModelListener:
        DATA32
        DC32 _ZTVN10__cxxabiv117__class_type_infoE + 0x8, _ZTS13ModelListener

        SECTION `.rodata`:CONST:REORDER:NOROOT(2)
        SECTION_GROUP _ZTI16Screen1Presenter
        DATA
// __absolute __vmi_class_type_info const <Typeinfo for Screen1Presenter>
_ZTI16Screen1Presenter:
        DATA32
        DC32 _ZTVN10__cxxabiv121__vmi_class_type_infoE + 0x8
        DC32 _ZTS16Screen1Presenter, 0, 2, _ZTIN8touchgfx9PresenterE, 2
        DC32 _ZTI13ModelListener, 1'026

        SECTION `.rodata`:CONST:REORDER:NOROOT(2)
        SECTION_GROUP _ZTS13ModelListener
        DATA
// __absolute char const <Typeinfo name for ModelListener>[16]
_ZTS13ModelListener:
        DATA8
        DC8 "13ModelListener"

        SECTION `.rodata`:CONST:REORDER:NOROOT(2)
        SECTION_GROUP _ZTSN8touchgfx9PresenterE
        DATA
// __absolute char const <Typeinfo name for touchgfx::Presenter>[22]
_ZTSN8touchgfx9PresenterE:
        DATA8
        DC8 "N8touchgfx9PresenterE"
        DATA16
        DS8 2

        SECTION `.rodata`:CONST:REORDER:NOROOT(2)
        SECTION_GROUP _ZTS16Screen1Presenter
        DATA
// __absolute char const <Typeinfo name for Screen1Presenter>[19]
_ZTS16Screen1Presenter:
        DATA8
        DC8 "16Screen1Presenter"
        DS8 1

        END
// 
// 188 bytes in section .rodata
// 178 bytes in section .text
// 
// 52 bytes of CODE  memory (+ 126 bytes shared)
//  0 bytes of CONST memory (+ 188 bytes shared)
//
//Errors: none
//Warnings: none
